target datalayout = "e-m:e-p270:32:32-p271:32:32-p272:64:64-i64:64-i128:128-f80:128-n8:16:32:64-S128"
target triple = "x86_64-unknown-linux-gnu"

%"class.std::__shared_count" = type { ptr }
%"class.std::__shared_ptr" = type { ptr, %"class.std::__shared_count" }

; Function Attrs: mustprogress nounwind uwtable
define linkonce_odr noundef ptr @_ZNKSt12__shared_ptrIN8facebook5velox10BaseVectorELN9__gnu_cxx12_Lock_policyE2EE3getEv(ptr noundef nonnull align 8 dereferenceable(16) %this) #1 comdat align 2 {
entry:
  %this.addr = alloca ptr, align 8
  store ptr %this, ptr %this.addr, align 8
  %this1 = load ptr, ptr %this.addr, align 8
  %_M_ptr = getelementptr inbounds %"class.std::__shared_ptr", ptr %this1, i32 0, i32 0
  %0 = load ptr, ptr %_M_ptr, align 8
  ret ptr %0
}

; Function Attrs: mustprogress nounwind uwtable
define linkonce_odr noundef ptr @_ZNKSt19__shared_ptr_accessIN8facebook5velox10BaseVectorELN9__gnu_cxx12_Lock_policyE2ELb0ELb0EE6_M_getEv(ptr noundef nonnull align 1 dereferenceable(1) %this) #1 comdat align 2 {
entry:
  %this.addr = alloca ptr, align 8
  store ptr %this, ptr %this.addr, align 8
  %this1 = load ptr, ptr %this.addr, align 8
  %call = call noundef ptr @_ZNKSt12__shared_ptrIN8facebook5velox10BaseVectorELN9__gnu_cxx12_Lock_policyE2EE3getEv(ptr noundef nonnull align 8 dereferenceable(16) %this1) #20
  ret ptr %call
}

; Function Attrs: mustprogress nounwind uwtable
define linkonce_odr noundef ptr @_ZNKSt19__shared_ptr_accessIN8facebook5velox10BaseVectorELN9__gnu_cxx12_Lock_policyE2ELb0ELb0EEptEv(ptr noundef nonnull align 1 dereferenceable(1) %this) #1 comdat align 2 {
entry:
  %this.addr = alloca ptr, align 8
  store ptr %this, ptr %this.addr, align 8
  %this1 = load ptr, ptr %this.addr, align 8
  %call = call noundef ptr @_ZNKSt19__shared_ptr_accessIN8facebook5velox10BaseVectorELN9__gnu_cxx12_Lock_policyE2ELb0ELb0EE6_M_getEv(ptr noundef nonnull align 1 dereferenceable(1) %this1) #20
  ret ptr %call
}

; Function Attrs: mustprogress uwtable
define void @_ZN8facebook5velox10serializer6presto17PrestoVectorSerde22estimateSerializedSizeESt10shared_ptrINS0_10BaseVectorEERKN5folly5RangeIPKNS0_10IndexRangeEEEPPiRNS0_7ScratchE(ptr noundef nonnull align 8 dereferenceable(8) %this, ptr noundef %vector, ptr noundef nonnull align 8 dereferenceable(16) %ranges, ptr noundef %sizes, ptr noundef nonnull align 8 dereferenceable(24) %scratch) unnamed_addr #0 align 2 {
entry:
  %this.addr = alloca ptr, align 8
  %vector.indirect_addr = alloca ptr, align 8
  %ranges.addr = alloca ptr, align 8
  %sizes.addr = alloca ptr, align 8
  %scratch.addr = alloca ptr, align 8
  store ptr %this, ptr %this.addr, align 8
  store ptr %vector, ptr %vector.indirect_addr, align 8
  store ptr %ranges, ptr %ranges.addr, align 8
  store ptr %sizes, ptr %sizes.addr, align 8
  store ptr %scratch, ptr %scratch.addr, align 8
  %call = call noundef ptr @_ZNKSt19__shared_ptr_accessIN8facebook5velox10BaseVectorELN9__gnu_cxx12_Lock_policyE2ELb0ELb0EEptEv(ptr noundef nonnull align 1 dereferenceable(1) %vector) #20
  %vtable = load ptr, ptr %call, align 8
  %vfn = getelementptr inbounds ptr, ptr %vtable, i64 32
  %0 = load ptr, ptr %vfn, align 8
  %call2 = call noundef ptr %0(ptr noundef nonnull align 8 dereferenceable(99) %call)
  %1 = load ptr, ptr %ranges.addr, align 8
  %2 = load ptr, ptr %sizes.addr, align 8
  %3 = load ptr, ptr %scratch.addr, align 8
  call void @_ZN8facebook5velox10serializer6presto12_GLOBAL__N_125estimateSerializedSizeIntEPKNS0_10BaseVectorERKN5folly5RangeIPKNS0_10IndexRangeEEEPPiRNS0_7ScratchE(ptr noundef %call2, ptr noundef nonnull align 8 dereferenceable(16) %1, ptr noundef %2, ptr noundef nonnull align 8 dereferenceable(24) %3)
  ret void
}