; Function Attrs: mustprogress uwtable
define void @_ZN8facebook5velox10serializer6presto17PrestoVectorSerde22estimateSerializedSizeESt10shared_ptrINS0_10BaseVectorEERKN5folly5RangeIPKNS0_10IndexRangeEEEPPiRNS0_7ScratchE(ptr nocapture nonnull readnone align 8 %this, ptr nocapture noundef readonly %vector, ptr noundef nonnull align 8 dereferenceable(16) %ranges, ptr noundef %sizes, ptr nocapture nonnull readnone align 8 %scratch) unnamed_addr #0 align 2 {
entry:
  %0 = load ptr, ptr %vector, align 8
  %vtable = load ptr, ptr %0, align 8
  %vfn = getelementptr inbounds i8, ptr %vtable, i64 256
  %1 = load ptr, ptr %vfn, align 8
  %call2 = tail call noundef ptr %1(ptr noundef nonnull align 8 dereferenceable(99) %0)
  tail call fastcc void @_ZN8facebook5velox10serializer6presto12_GLOBAL__N_125estimateSerializedSizeIntEPKNS0_10BaseVectorERKN5folly5RangeIPKNS0_10IndexRangeEEEPPiRNS0_7ScratchE(ptr noundef %call2, ptr noundef nonnull align 8 dereferenceable(16) %ranges, ptr noundef %sizes)
  ret void
}